; Function Attrs: mustprogress nounwind uwtable
define dso_local void @_ZN5clang16MacroPPCallbacks14MacroUndefinedERKNS_5TokenERKNS_15MacroDefinitionEPKNS_14MacroDirectiveE(ptr noundef nonnull align 8 dereferenceable(88) %0, ptr noundef nonnull readonly align 8 captures(none) dereferenceable(20) %1, ptr nonnull readnone align 8 captures(none) %2, ptr readnone captures(none) %3) unnamed_addr #0 align 2 {
  %5 = alloca %"class.llvm::StringRef", align 8
  %6 = getelementptr inbounds nuw i8, ptr %1, i64 16
  %7 = load i16, ptr %6, align 8
  %switch.tableidx = add i16 %7, -1
  %8 = icmp ult i16 %switch.tableidx, 19
  br i1 %8, label %switch.hole_check, label %9

9:                                                ; preds = %switch.hole_check, %4
  %10 = getelementptr inbounds nuw i8, ptr %1, i64 8
  %11 = load ptr, ptr %10, align 8
  br label %_ZNK5clang5Token17getIdentifierInfoEv.exit

switch.hole_check:                                ; preds = %4
  %switch.maskindex = zext nneg i16 %switch.tableidx to i32
  %switch.shifted = lshr i32 524225, %switch.maskindex
  %switch.lobit = trunc i32 %switch.shifted to i1
  br i1 %switch.lobit, label %_ZNK5clang5Token17getIdentifierInfoEv.exit, label %9

_ZNK5clang5Token17getIdentifierInfoEv.exit:       ; preds = %switch.hole_check, %9
  %.0.i = phi ptr [ %11, %9 ], [ null, %switch.hole_check ]
  %12 = load i32, ptr %1, align 8
  %13 = getelementptr inbounds nuw i8, ptr %0, i64 32
  %14 = load i32, ptr %13, align 8
  %15 = getelementptr inbounds nuw i8, ptr %0, i64 28
  %16 = load i32, ptr %15, align 4
  %17 = getelementptr inbounds nuw i8, ptr %0, i64 8
  %18 = load ptr, ptr %17, align 8
  %19 = tail call noundef ptr @_ZN5clang13CodeGenerator14getCGDebugInfoEv(ptr noundef nonnull align 8 dereferenceable(9) %18) #14
  %20 = load i32, ptr %13, align 8
  %.off.i = add i32 %20, -3
  %switch.i = icmp ult i32 %.off.i, 2
  br i1 %switch.i, label %21, label %_ZN5clang16MacroPPCallbacks15getCurrentScopeEv.exit

21:                                               ; preds = %_ZNK5clang5Token17getIdentifierInfoEv.exit
  %22 = getelementptr inbounds nuw i8, ptr %0, i64 40
  %23 = load ptr, ptr %22, align 8
  %24 = tail call noundef i64 @_ZNK4llvm15SmallVectorBaseIjE4sizeEv(ptr noundef nonnull align 8 dereferenceable(16) %22) #14
  %25 = getelementptr inbounds ptr, ptr %23, i64 %24
  %26 = getelementptr inbounds i8, ptr %25, i64 -8
  %27 = load ptr, ptr %26, align 8
  br label %_ZN5clang16MacroPPCallbacks15getCurrentScopeEv.exit

_ZN5clang16MacroPPCallbacks15getCurrentScopeEv.exit: ; preds = %_ZNK5clang5Token17getIdentifierInfoEv.exit, %21
  %.0.i7 = phi ptr [ %27, %21 ], [ null, %_ZNK5clang5Token17getIdentifierInfoEv.exit ]
  %28 = icmp ne i32 %14, 4
  %.not.i = icmp eq i32 %16, 0
  %or.cond.i = select i1 %28, i1 %.not.i, i1 false
  %spec.select.i = select i1 %or.cond.i, i32 0, i32 %12
  %29 = getelementptr inbounds nuw i8, ptr %.0.i, i64 16
  %30 = load ptr, ptr %29, align 8
  %31 = getelementptr inbounds nuw i8, ptr %30, i64 16
  %32 = load i64, ptr %30, align 8
  %33 = and i64 %32, 4294967295
  store ptr @.str.2, ptr %5, align 8
  %34 = getelementptr inbounds nuw i8, ptr %5, i64 8
  store i64 0, ptr %34, align 8
  %35 = tail call noundef ptr @_ZN5clang7CodeGen11CGDebugInfo11CreateMacroEPN4llvm11DIMacroFileEjNS_14SourceLocationENS2_9StringRefES6_(ptr noundef nonnull align 8 dereferenceable(2472) %19, ptr noundef %.0.i7, i32 noundef 2, i32 %spec.select.i, ptr nonnull %31, i64 %33, ptr noundef nonnull byval(%"class.llvm::StringRef") align 8 %5) #14
  ret void
}